target datalayout = "e-m:e-p270:32:32-p271:32:32-p272:64:64-i64:64-i128:128-f80:128-n8:16:32:64-S128"
target triple = "x86_64-pc-linux-gnu"

%struct.IndexScanDescData = type { ptr, ptr, ptr, i32, i32, ptr, ptr, i8, i8, i8, i8, i8, ptr, ptr, ptr, ptr, ptr, %struct.ItemPointerData, i8, ptr, i8, ptr, ptr, i8, ptr }
%struct.ItemPointerData = type { %struct.BlockIdData, i16 }
%struct.BlockIdData = type { i16, i16 }

; Function Attrs: nounwind uwtable
define dso_local ptr @RelationGetIndexScan(ptr noundef %0, i32 noundef %1, i32 noundef %2) #0 {
  %4 = alloca ptr, align 8
  %5 = alloca i32, align 4
  %6 = alloca i32, align 4
  %7 = alloca ptr, align 8
  store ptr %0, ptr %4, align 8
  store i32 %1, ptr %5, align 4
  store i32 %2, ptr %6, align 4
  call void @llvm.lifetime.start.p0(i64 8, ptr %7) #7
  %8 = call ptr @palloc(i64 noundef 152)
  store ptr %8, ptr %7, align 8
  %9 = load ptr, ptr %7, align 8
  %10 = getelementptr inbounds nuw %struct.IndexScanDescData, ptr %9, i32 0, i32 0
  store ptr null, ptr %10, align 8
  %11 = load ptr, ptr %7, align 8
  %12 = getelementptr inbounds nuw %struct.IndexScanDescData, ptr %11, i32 0, i32 19
  store ptr null, ptr %12, align 8
  %13 = load ptr, ptr %4, align 8
  %14 = load ptr, ptr %7, align 8
  %15 = getelementptr inbounds nuw %struct.IndexScanDescData, ptr %14, i32 0, i32 1
  store ptr %13, ptr %15, align 8
  %16 = load ptr, ptr %7, align 8
  %17 = getelementptr inbounds nuw %struct.IndexScanDescData, ptr %16, i32 0, i32 2
  store ptr null, ptr %17, align 8
  %18 = load i32, ptr %5, align 4
  %19 = load ptr, ptr %7, align 8
  %20 = getelementptr inbounds nuw %struct.IndexScanDescData, ptr %19, i32 0, i32 3
  store i32 %18, ptr %20, align 8
  %21 = load i32, ptr %6, align 4
  %22 = load ptr, ptr %7, align 8
  %23 = getelementptr inbounds nuw %struct.IndexScanDescData, ptr %22, i32 0, i32 4
  store i32 %21, ptr %23, align 4
  %24 = load i32, ptr %5, align 4
  %25 = icmp sgt i32 %24, 0
  br i1 %25, label %26, label %33

26:                                               ; preds = %3
  %27 = load i32, ptr %5, align 4
  %28 = sext i32 %27 to i64
  %29 = mul i64 72, %28
  %30 = call ptr @palloc(i64 noundef %29)
  %31 = load ptr, ptr %7, align 8
  %32 = getelementptr inbounds nuw %struct.IndexScanDescData, ptr %31, i32 0, i32 5
  store ptr %30, ptr %32, align 8
  br label %36

33:                                               ; preds = %3
  %34 = load ptr, ptr %7, align 8
  %35 = getelementptr inbounds nuw %struct.IndexScanDescData, ptr %34, i32 0, i32 5
  store ptr null, ptr %35, align 8
  br label %36

36:                                               ; preds = %33, %26
  %37 = load i32, ptr %6, align 4
  %38 = icmp sgt i32 %37, 0
  br i1 %38, label %39, label %46

39:                                               ; preds = %36
  %40 = load i32, ptr %6, align 4
  %41 = sext i32 %40 to i64
  %42 = mul i64 72, %41
  %43 = call ptr @palloc(i64 noundef %42)
  %44 = load ptr, ptr %7, align 8
  %45 = getelementptr inbounds nuw %struct.IndexScanDescData, ptr %44, i32 0, i32 6
  store ptr %43, ptr %45, align 8
  br label %49

46:                                               ; preds = %36
  %47 = load ptr, ptr %7, align 8
  %48 = getelementptr inbounds nuw %struct.IndexScanDescData, ptr %47, i32 0, i32 6
  store ptr null, ptr %48, align 8
  br label %49

49:                                               ; preds = %46, %39
  %50 = load ptr, ptr %7, align 8
  %51 = getelementptr inbounds nuw %struct.IndexScanDescData, ptr %50, i32 0, i32 7
  store i8 0, ptr %51, align 8
  %52 = load ptr, ptr %7, align 8
  %53 = getelementptr inbounds nuw %struct.IndexScanDescData, ptr %52, i32 0, i32 9
  store i8 0, ptr %53, align 2
  %54 = call zeroext i1 @TransactionStartedDuringRecovery()
  %55 = load ptr, ptr %7, align 8
  %56 = getelementptr inbounds nuw %struct.IndexScanDescData, ptr %55, i32 0, i32 11
  %57 = zext i1 %54 to i8
  store i8 %57, ptr %56, align 4
  %58 = load ptr, ptr %7, align 8
  %59 = getelementptr inbounds nuw %struct.IndexScanDescData, ptr %58, i32 0, i32 11
  %60 = load i8, ptr %59, align 4, !range !4, !noundef !5
  %61 = trunc i8 %60 to i1
  %62 = xor i1 %61, true
  %63 = load ptr, ptr %7, align 8
  %64 = getelementptr inbounds nuw %struct.IndexScanDescData, ptr %63, i32 0, i32 10
  %65 = zext i1 %62 to i8
  store i8 %65, ptr %64, align 1
  %66 = load ptr, ptr %7, align 8
  %67 = getelementptr inbounds nuw %struct.IndexScanDescData, ptr %66, i32 0, i32 12
  store ptr null, ptr %67, align 8
  %68 = load ptr, ptr %7, align 8
  %69 = getelementptr inbounds nuw %struct.IndexScanDescData, ptr %68, i32 0, i32 13
  store ptr null, ptr %69, align 8
  %70 = load ptr, ptr %7, align 8
  %71 = getelementptr inbounds nuw %struct.IndexScanDescData, ptr %70, i32 0, i32 14
  store ptr null, ptr %71, align 8
  %72 = load ptr, ptr %7, align 8
  %73 = getelementptr inbounds nuw %struct.IndexScanDescData, ptr %72, i32 0, i32 15
  store ptr null, ptr %73, align 8
  %74 = load ptr, ptr %7, align 8
  %75 = getelementptr inbounds nuw %struct.IndexScanDescData, ptr %74, i32 0, i32 16
  store ptr null, ptr %75, align 8
  %76 = load ptr, ptr %7, align 8
  call void @llvm.lifetime.end.p0(i64 8, ptr %7) #7
  ret ptr %76
}