; Function Attrs: nounwind uwtable
define dso_local noundef ptr @RelationGetIndexScan(ptr noundef %0, i32 noundef %1, i32 noundef %2) local_unnamed_addr #0 {
  %4 = tail call ptr @palloc(i64 noundef 152) #7
  store ptr null, ptr %4, align 8
  %5 = getelementptr inbounds nuw i8, ptr %4, i64 104
  store ptr null, ptr %5, align 8
  %6 = getelementptr inbounds nuw i8, ptr %4, i64 8
  store ptr %0, ptr %6, align 8
  %7 = getelementptr inbounds nuw i8, ptr %4, i64 16
  store ptr null, ptr %7, align 8
  %8 = getelementptr inbounds nuw i8, ptr %4, i64 24
  store i32 %1, ptr %8, align 8
  %9 = getelementptr inbounds nuw i8, ptr %4, i64 28
  store i32 %2, ptr %9, align 4
  %10 = icmp sgt i32 %1, 0
  br i1 %10, label %11, label %15

11:                                               ; preds = %3
  %12 = zext nneg i32 %1 to i64
  %13 = mul nuw nsw i64 %12, 72
  %14 = tail call ptr @palloc(i64 noundef %13) #7
  br label %15

15:                                               ; preds = %3, %11
  %.sink = phi ptr [ %14, %11 ], [ null, %3 ]
  %16 = getelementptr inbounds nuw i8, ptr %4, i64 32
  store ptr %.sink, ptr %16, align 8
  %17 = icmp sgt i32 %2, 0
  br i1 %17, label %18, label %22

18:                                               ; preds = %15
  %19 = zext nneg i32 %2 to i64
  %20 = mul nuw nsw i64 %19, 72
  %21 = tail call ptr @palloc(i64 noundef %20) #7
  br label %22

22:                                               ; preds = %15, %18
  %.sink28 = phi ptr [ %21, %18 ], [ null, %15 ]
  %23 = getelementptr inbounds nuw i8, ptr %4, i64 40
  store ptr %.sink28, ptr %23, align 8
  %24 = getelementptr inbounds nuw i8, ptr %4, i64 48
  store i8 0, ptr %24, align 8
  %25 = getelementptr inbounds nuw i8, ptr %4, i64 50
  store i8 0, ptr %25, align 2
  %26 = tail call zeroext i1 @TransactionStartedDuringRecovery() #7
  %27 = getelementptr inbounds nuw i8, ptr %4, i64 52
  %28 = zext i1 %26 to i8
  store i8 %28, ptr %27, align 4
  %29 = xor i1 %26, true
  %30 = getelementptr inbounds nuw i8, ptr %4, i64 51
  %31 = zext i1 %29 to i8
  store i8 %31, ptr %30, align 1
  %32 = getelementptr inbounds nuw i8, ptr %4, i64 56
  tail call void @llvm.memset.p0.i64(ptr noundef nonnull align 8 dereferenceable(40) %32, i8 0, i64 40, i1 false)
  ret ptr %4
}